; Function Attrs: mustprogress uwtable
define noundef nonnull align 8 dereferenceable(64) ptr @_ZNK6icu_758TZGNCore14getDisplayNameERKNS_8TimeZoneE24UTimeZoneGenericNameTypedRNS_13UnicodeStringE(ptr noundef nonnull align 8 dereferenceable(485) %this, ptr noundef nonnull align 8 dereferenceable(72) %tz, i32 noundef %type, double noundef %date, ptr noundef nonnull returned align 8 dereferenceable(64) %name) local_unnamed_addr #1 align 2 personality ptr @__gxx_personality_v0 {
entry:
  %ref.tmp = alloca %"class.icu_75::UnicodeString", align 8
  %agg.tmp = alloca %"class.icu_75::ConstChar16Ptr", align 8
  %ref.tmp13 = alloca %"class.icu_75::UnicodeString", align 8
  %agg.tmp14 = alloca %"class.icu_75::ConstChar16Ptr", align 8
  tail call void @_ZN6icu_7513UnicodeString10setToBogusEv(ptr noundef nonnull align 8 dereferenceable(64) %name)
  switch i32 %type, label %sw.epilog [
    i32 1, label %sw.bb
    i32 2, label %sw.bb5
    i32 4, label %sw.bb5
  ]

sw.bb:                                            ; preds = %entry
  %call = tail call noundef ptr @_ZN6icu_758ZoneMeta18getCanonicalCLDRIDERKNS_8TimeZoneE(ptr noundef nonnull align 8 dereferenceable(72) %tz)
  %cmp.not = icmp eq ptr %call, null
  br i1 %cmp.not, label %sw.epilog, label %if.then

if.then:                                          ; preds = %sw.bb
  store ptr %call, ptr %agg.tmp, align 8
  invoke void @_ZN6icu_7513UnicodeStringC1EaNS_14ConstChar16PtrEi(ptr noundef nonnull align 8 dereferenceable(64) %ref.tmp, i8 noundef signext 1, ptr noundef nonnull %agg.tmp, i32 noundef -1)
          to label %invoke.cont unwind label %lpad

invoke.cont:                                      ; preds = %if.then
  %call4 = invoke noundef nonnull align 8 dereferenceable(64) ptr @_ZNK6icu_758TZGNCore22getGenericLocationNameERKNS_13UnicodeStringERS1_(ptr noundef nonnull align 8 dereferenceable(485) %this, ptr noundef nonnull align 8 dereferenceable(64) %ref.tmp, ptr noundef nonnull align 8 dereferenceable(64) %name)
          to label %invoke.cont3 unwind label %lpad2

invoke.cont3:                                     ; preds = %invoke.cont
  call void @_ZN6icu_7513UnicodeStringD1Ev(ptr noundef nonnull align 8 dereferenceable(64) %ref.tmp) #17
  %0 = load ptr, ptr %agg.tmp, align 8
  call void asm sideeffect "", "rm,~{memory},~{dirflag},~{fpsr},~{flags}"(ptr %0) #17, !srcloc !4
  br label %sw.epilog

lpad:                                             ; preds = %if.then
  %1 = landingpad { ptr, i32 }
          cleanup
  br label %ehcleanup

lpad2:                                            ; preds = %invoke.cont
  %2 = landingpad { ptr, i32 }
          cleanup
  call void @_ZN6icu_7513UnicodeStringD1Ev(ptr noundef nonnull align 8 dereferenceable(64) %ref.tmp) #17
  br label %ehcleanup

ehcleanup:                                        ; preds = %lpad2, %lpad
  %.pn12 = phi { ptr, i32 } [ %2, %lpad2 ], [ %1, %lpad ]
  %3 = load ptr, ptr %agg.tmp, align 8
  call void asm sideeffect "", "rm,~{memory},~{dirflag},~{fpsr},~{flags}"(ptr %3) #17, !srcloc !4
  br label %eh.resume

sw.bb5:                                           ; preds = %entry, %entry
  %call6 = tail call noundef nonnull align 8 dereferenceable(64) ptr @_ZNK6icu_758TZGNCore28formatGenericNonLocationNameERKNS_8TimeZoneE24UTimeZoneGenericNameTypedRNS_13UnicodeStringE(ptr noundef nonnull align 8 dereferenceable(485) %this, ptr noundef nonnull align 8 dereferenceable(72) %tz, i32 noundef %type, double noundef %date, ptr noundef nonnull align 8 dereferenceable(64) %name)
  %fUnion.i = getelementptr inbounds i8, ptr %name, i64 8
  %4 = load i16, ptr %fUnion.i, align 8
  %cmp.i = icmp ugt i16 %4, 31
  br i1 %cmp.i, label %sw.epilog, label %if.then8

if.then8:                                         ; preds = %sw.bb5
  %call10 = tail call noundef ptr @_ZN6icu_758ZoneMeta18getCanonicalCLDRIDERKNS_8TimeZoneE(ptr noundef nonnull align 8 dereferenceable(72) %tz)
  %cmp11.not = icmp eq ptr %call10, null
  br i1 %cmp11.not, label %sw.epilog, label %if.then12

if.then12:                                        ; preds = %if.then8
  store ptr %call10, ptr %agg.tmp14, align 8
  invoke void @_ZN6icu_7513UnicodeStringC1EaNS_14ConstChar16PtrEi(ptr noundef nonnull align 8 dereferenceable(64) %ref.tmp13, i8 noundef signext 1, ptr noundef nonnull %agg.tmp14, i32 noundef -1)
          to label %invoke.cont16 unwind label %lpad15

invoke.cont16:                                    ; preds = %if.then12
  %call19 = invoke noundef nonnull align 8 dereferenceable(64) ptr @_ZNK6icu_758TZGNCore22getGenericLocationNameERKNS_13UnicodeStringERS1_(ptr noundef nonnull align 8 dereferenceable(485) %this, ptr noundef nonnull align 8 dereferenceable(64) %ref.tmp13, ptr noundef nonnull align 8 dereferenceable(64) %name)
          to label %invoke.cont18 unwind label %lpad17

invoke.cont18:                                    ; preds = %invoke.cont16
  call void @_ZN6icu_7513UnicodeStringD1Ev(ptr noundef nonnull align 8 dereferenceable(64) %ref.tmp13) #17
  %5 = load ptr, ptr %agg.tmp14, align 8
  call void asm sideeffect "", "rm,~{memory},~{dirflag},~{fpsr},~{flags}"(ptr %5) #17, !srcloc !4
  br label %sw.epilog

lpad15:                                           ; preds = %if.then12
  %6 = landingpad { ptr, i32 }
          cleanup
  br label %ehcleanup21

lpad17:                                           ; preds = %invoke.cont16
  %7 = landingpad { ptr, i32 }
          cleanup
  call void @_ZN6icu_7513UnicodeStringD1Ev(ptr noundef nonnull align 8 dereferenceable(64) %ref.tmp13) #17
  br label %ehcleanup21

ehcleanup21:                                      ; preds = %lpad17, %lpad15
  %.pn = phi { ptr, i32 } [ %7, %lpad17 ], [ %6, %lpad15 ]
  %8 = load ptr, ptr %agg.tmp14, align 8
  call void asm sideeffect "", "rm,~{memory},~{dirflag},~{fpsr},~{flags}"(ptr %8) #17, !srcloc !4
  br label %eh.resume

sw.epilog:                                        ; preds = %entry, %sw.bb5, %invoke.cont18, %if.then8, %sw.bb, %invoke.cont3
  ret ptr %name

eh.resume:                                        ; preds = %ehcleanup21, %ehcleanup
  %.pn.pn = phi { ptr, i32 } [ %.pn, %ehcleanup21 ], [ %.pn12, %ehcleanup ]
  resume { ptr, i32 } %.pn.pn
}